; Function Attrs: mustprogress nounwind uwtable
define internal void @_ZNSt6vectorIPN12_GLOBAL__N_15NodeTESaIS2_EED2Ev(ptr nocapture noundef nonnull readonly align 8 dereferenceable(24) %0) unnamed_addr #0 align 2 {
  %.val = load ptr, ptr %0, align 8
  %.not.i.i = icmp eq ptr %.val, null
  br i1 %.not.i.i, label %_ZNSt12_Vector_baseIPN12_GLOBAL__N_15NodeTESaIS2_EED2Ev.exit, label %2

2:                                                ; preds = %1
  %3 = getelementptr inbounds i8, ptr %0, i64 16
  %.val1 = load ptr, ptr %3, align 8
  %4 = ptrtoint ptr %.val1 to i64
  %5 = ptrtoint ptr %.val to i64
  %6 = sub i64 %4, %5
  tail call void @_ZdlPvm(ptr noundef nonnull %.val, i64 noundef %6) #22
  br label %_ZNSt12_Vector_baseIPN12_GLOBAL__N_15NodeTESaIS2_EED2Ev.exit

_ZNSt12_Vector_baseIPN12_GLOBAL__N_15NodeTESaIS2_EED2Ev.exit: ; preds = %1, %2
  ret void
}